target datalayout = "e-m:e-p270:32:32-p271:32:32-p272:64:64-i64:64-i128:128-f80:128-n8:16:32:64-S128"
target triple = "x86_64-pc-linux-gnu"

%"class.duckdb_re2::CharClassBuilder" = type { i32, i32, i32, %"class.std::set" }
%"class.std::set" = type { %"class.std::_Rb_tree" }
%"class.std::_Rb_tree" = type { %"struct.std::_Rb_tree<duckdb_re2::RuneRange, duckdb_re2::RuneRange, std::_Identity<duckdb_re2::RuneRange>, duckdb_re2::RuneRangeLess>::_Rb_tree_impl" }
%"struct.std::_Rb_tree<duckdb_re2::RuneRange, duckdb_re2::RuneRange, std::_Identity<duckdb_re2::RuneRange>, duckdb_re2::RuneRangeLess>::_Rb_tree_impl" = type { [8 x i8], %"struct.std::_Rb_tree_header" }
%"struct.std::_Rb_tree_header" = type { %"struct.std::_Rb_tree_node_base", i64 }
%"struct.std::_Rb_tree_node_base" = type { i32, ptr, ptr, ptr }
%"struct.std::_Rb_tree_const_iterator" = type { ptr }
%"struct.duckdb_re2::RuneRange" = type { i32, i32 }
%"class.duckdb_re2::CharClass" = type <{ i8, [3 x i8], i32, ptr, i32, [4 x i8] }>
%"struct.std::_Rb_tree_node" = type { %"struct.std::_Rb_tree_node_base", %"struct.__gnu_cxx::__aligned_membuf" }
%"struct.__gnu_cxx::__aligned_membuf" = type { [8 x i8] }

; Function Attrs: mustprogress nounwind uwtable
define linkonce_odr hidden noundef ptr @_ZNK9__gnu_cxx16__aligned_membufIN10duckdb_re29RuneRangeEE7_M_addrEv(ptr noundef nonnull align 4 dereferenceable(8) %0) #0 comdat align 2 {
  %2 = alloca ptr, align 8
  store ptr %0, ptr %2, align 8, !tbaa !231
  %3 = load ptr, ptr %2, align 8
  %4 = getelementptr inbounds nuw %"struct.__gnu_cxx::__aligned_membuf", ptr %3, i32 0, i32 0
  ret ptr %4
}

; Function Attrs: mustprogress nounwind uwtable
define linkonce_odr hidden void @_ZNSt23_Rb_tree_const_iteratorIN10duckdb_re29RuneRangeEEC2EPKSt18_Rb_tree_node_base(ptr noundef nonnull align 8 dereferenceable(8) %0, ptr noundef %1) unnamed_addr #0 comdat align 2 {
  %3 = alloca ptr, align 8
  %4 = alloca ptr, align 8
  store ptr %0, ptr %3, align 8, !tbaa !163
  store ptr %1, ptr %4, align 8, !tbaa !65
  %5 = load ptr, ptr %3, align 8
  %6 = getelementptr inbounds nuw %"struct.std::_Rb_tree_const_iterator", ptr %5, i32 0, i32 0
  %7 = load ptr, ptr %4, align 8, !tbaa !65
  store ptr %7, ptr %6, align 8, !tbaa !165
  ret void
}

; Function Attrs: mustprogress nounwind uwtable
define linkonce_odr hidden noundef ptr @_ZNK9__gnu_cxx16__aligned_membufIN10duckdb_re29RuneRangeEE6_M_ptrEv(ptr noundef nonnull align 4 dereferenceable(8) %0) #0 comdat align 2 {
  %2 = alloca ptr, align 8
  store ptr %0, ptr %2, align 8, !tbaa !231
  %3 = load ptr, ptr %2, align 8
  %4 = call noundef ptr @_ZNK9__gnu_cxx16__aligned_membufIN10duckdb_re29RuneRangeEE7_M_addrEv(ptr noundef nonnull align 4 dereferenceable(8) %3) #18
  ret ptr %4
}

; Function Attrs: mustprogress nounwind uwtable
define linkonce_odr hidden ptr @_ZNKSt8_Rb_treeIN10duckdb_re29RuneRangeES1_St9_IdentityIS1_ENS0_13RuneRangeLessESaIS1_EE3endEv(ptr noundef nonnull align 8 dereferenceable(48) %0) #0 comdat align 2 {
  %2 = alloca %"struct.std::_Rb_tree_const_iterator", align 8
  %3 = alloca ptr, align 8
  store ptr %0, ptr %3, align 8, !tbaa !220
  %4 = load ptr, ptr %3, align 8
  %5 = getelementptr inbounds nuw %"class.std::_Rb_tree", ptr %4, i32 0, i32 0
  %6 = getelementptr inbounds i8, ptr %5, i64 8
  %7 = getelementptr inbounds nuw %"struct.std::_Rb_tree_header", ptr %6, i32 0, i32 0
  call void @_ZNSt23_Rb_tree_const_iteratorIN10duckdb_re29RuneRangeEEC2EPKSt18_Rb_tree_node_base(ptr noundef nonnull align 8 dereferenceable(8) %2, ptr noundef %7) #18
  %8 = getelementptr inbounds nuw %"struct.std::_Rb_tree_const_iterator", ptr %2, i32 0, i32 0
  %9 = load ptr, ptr %8, align 8
  ret ptr %9
}

; Function Attrs: mustprogress nounwind uwtable
define linkonce_odr hidden ptr @_ZNKSt8_Rb_treeIN10duckdb_re29RuneRangeES1_St9_IdentityIS1_ENS0_13RuneRangeLessESaIS1_EE5beginEv(ptr noundef nonnull align 8 dereferenceable(48) %0) #0 comdat align 2 {
  %2 = alloca %"struct.std::_Rb_tree_const_iterator", align 8
  %3 = alloca ptr, align 8
  store ptr %0, ptr %3, align 8, !tbaa !220
  %4 = load ptr, ptr %3, align 8
  %5 = getelementptr inbounds nuw %"class.std::_Rb_tree", ptr %4, i32 0, i32 0
  %6 = getelementptr inbounds i8, ptr %5, i64 8
  %7 = getelementptr inbounds nuw %"struct.std::_Rb_tree_header", ptr %6, i32 0, i32 0
  %8 = getelementptr inbounds nuw %"struct.std::_Rb_tree_node_base", ptr %7, i32 0, i32 2
  %9 = load ptr, ptr %8, align 8, !tbaa !328
  call void @_ZNSt23_Rb_tree_const_iteratorIN10duckdb_re29RuneRangeEEC2EPKSt18_Rb_tree_node_base(ptr noundef nonnull align 8 dereferenceable(8) %2, ptr noundef %9) #18
  %10 = getelementptr inbounds nuw %"struct.std::_Rb_tree_const_iterator", ptr %2, i32 0, i32 0
  %11 = load ptr, ptr %10, align 8
  ret ptr %11
}

; Function Attrs: mustprogress nounwind uwtable
define linkonce_odr hidden noundef ptr @_ZNKSt13_Rb_tree_nodeIN10duckdb_re29RuneRangeEE9_M_valptrEv(ptr noundef nonnull align 8 dereferenceable(40) %0) #0 comdat align 2 {
  %2 = alloca ptr, align 8
  store ptr %0, ptr %2, align 8, !tbaa !222
  %3 = load ptr, ptr %2, align 8
  %4 = getelementptr inbounds nuw %"struct.std::_Rb_tree_node", ptr %3, i32 0, i32 1
  %5 = call noundef ptr @_ZNK9__gnu_cxx16__aligned_membufIN10duckdb_re29RuneRangeEE6_M_ptrEv(ptr noundef nonnull align 4 dereferenceable(8) %4) #18
  ret ptr %5
}

; Function Attrs: mustprogress nounwind uwtable
define linkonce_odr hidden ptr @_ZNKSt3setIN10duckdb_re29RuneRangeENS0_13RuneRangeLessESaIS1_EE3endEv(ptr noundef nonnull align 8 dereferenceable(48) %0) #0 comdat align 2 {
  %2 = alloca %"struct.std::_Rb_tree_const_iterator", align 8
  %3 = alloca ptr, align 8
  store ptr %0, ptr %3, align 8, !tbaa !155
  %4 = load ptr, ptr %3, align 8
  %5 = getelementptr inbounds nuw %"class.std::set", ptr %4, i32 0, i32 0
  %6 = call ptr @_ZNKSt8_Rb_treeIN10duckdb_re29RuneRangeES1_St9_IdentityIS1_ENS0_13RuneRangeLessESaIS1_EE3endEv(ptr noundef nonnull align 8 dereferenceable(48) %5) #18
  %7 = getelementptr inbounds nuw %"struct.std::_Rb_tree_const_iterator", ptr %2, i32 0, i32 0
  store ptr %6, ptr %7, align 8
  %8 = getelementptr inbounds nuw %"struct.std::_Rb_tree_const_iterator", ptr %2, i32 0, i32 0
  %9 = load ptr, ptr %8, align 8
  ret ptr %9
}

; Function Attrs: mustprogress nounwind uwtable
define linkonce_odr hidden ptr @_ZNKSt3setIN10duckdb_re29RuneRangeENS0_13RuneRangeLessESaIS1_EE5beginEv(ptr noundef nonnull align 8 dereferenceable(48) %0) #0 comdat align 2 {
  %2 = alloca %"struct.std::_Rb_tree_const_iterator", align 8
  %3 = alloca ptr, align 8
  store ptr %0, ptr %3, align 8, !tbaa !155
  %4 = load ptr, ptr %3, align 8
  %5 = getelementptr inbounds nuw %"class.std::set", ptr %4, i32 0, i32 0
  %6 = call ptr @_ZNKSt8_Rb_treeIN10duckdb_re29RuneRangeES1_St9_IdentityIS1_ENS0_13RuneRangeLessESaIS1_EE5beginEv(ptr noundef nonnull align 8 dereferenceable(48) %5) #18
  %7 = getelementptr inbounds nuw %"struct.std::_Rb_tree_const_iterator", ptr %2, i32 0, i32 0
  store ptr %6, ptr %7, align 8
  %8 = getelementptr inbounds nuw %"struct.std::_Rb_tree_const_iterator", ptr %2, i32 0, i32 0
  %9 = load ptr, ptr %8, align 8
  ret ptr %9
}

; Function Attrs: mustprogress nounwind uwtable
define linkonce_odr hidden noundef i64 @_ZNKSt8_Rb_treeIN10duckdb_re29RuneRangeES1_St9_IdentityIS1_ENS0_13RuneRangeLessESaIS1_EE4sizeEv(ptr noundef nonnull align 8 dereferenceable(48) %0) #0 comdat align 2 {
  %2 = alloca ptr, align 8
  store ptr %0, ptr %2, align 8, !tbaa !220
  %3 = load ptr, ptr %2, align 8
  %4 = getelementptr inbounds nuw %"class.std::_Rb_tree", ptr %3, i32 0, i32 0
  %5 = getelementptr inbounds i8, ptr %4, i64 8
  %6 = getelementptr inbounds nuw %"struct.std::_Rb_tree_header", ptr %5, i32 0, i32 1
  %7 = load i64, ptr %6, align 8, !tbaa !330
  ret i64 %7
}

; Function Attrs: mustprogress nounwind uwtable
define hidden noundef zeroext i1 @_ZN10duckdb_re216CharClassBuilder10FoldsASCIIEv(ptr noundef nonnull align 8 dereferenceable(64) %0) #0 align 2 {
  %2 = alloca ptr, align 8
  store ptr %0, ptr %2, align 8, !tbaa !50
  %3 = load ptr, ptr %2, align 8
  %4 = getelementptr inbounds nuw %"class.duckdb_re2::CharClassBuilder", ptr %3, i32 0, i32 0
  %5 = load i32, ptr %4, align 8, !tbaa !153
  %6 = getelementptr inbounds nuw %"class.duckdb_re2::CharClassBuilder", ptr %3, i32 0, i32 1
  %7 = load i32, ptr %6, align 4, !tbaa !154
  %8 = xor i32 %5, %7
  %9 = and i32 %8, 67108863
  %10 = icmp eq i32 %9, 0
  ret i1 %10
}

; Function Attrs: mustprogress nounwind uwtable
define linkonce_odr hidden noundef nonnull align 8 dereferenceable(8) ptr @_ZNSt23_Rb_tree_const_iteratorIN10duckdb_re29RuneRangeEEppEv(ptr noundef nonnull align 8 dereferenceable(8) %0) #0 comdat align 2 {
  %2 = alloca ptr, align 8
  store ptr %0, ptr %2, align 8, !tbaa !163
  %3 = load ptr, ptr %2, align 8
  %4 = getelementptr inbounds nuw %"struct.std::_Rb_tree_const_iterator", ptr %3, i32 0, i32 0
  %5 = load ptr, ptr %4, align 8, !tbaa !165
  %6 = call noundef ptr @_ZSt18_Rb_tree_incrementPKSt18_Rb_tree_node_base(ptr noundef %5) #23
  %7 = getelementptr inbounds nuw %"struct.std::_Rb_tree_const_iterator", ptr %3, i32 0, i32 0
  store ptr %6, ptr %7, align 8, !tbaa !165
  ret ptr %3
}

; Function Attrs: mustprogress nounwind uwtable
define linkonce_odr hidden noundef nonnull align 4 dereferenceable(8) ptr @_ZNKSt23_Rb_tree_const_iteratorIN10duckdb_re29RuneRangeEEdeEv(ptr noundef nonnull align 8 dereferenceable(8) %0) #0 comdat align 2 {
  %2 = alloca ptr, align 8
  store ptr %0, ptr %2, align 8, !tbaa !163
  %3 = load ptr, ptr %2, align 8
  %4 = getelementptr inbounds nuw %"struct.std::_Rb_tree_const_iterator", ptr %3, i32 0, i32 0
  %5 = load ptr, ptr %4, align 8, !tbaa !165
  %6 = call noundef ptr @_ZNKSt13_Rb_tree_nodeIN10duckdb_re29RuneRangeEE9_M_valptrEv(ptr noundef nonnull align 8 dereferenceable(40) %5)
  ret ptr %6
}

; Function Attrs: mustprogress nounwind uwtable
define linkonce_odr noundef zeroext i1 @_ZStneRKSt23_Rb_tree_const_iteratorIN10duckdb_re29RuneRangeEES4_(ptr noundef nonnull align 8 dereferenceable(8) %0, ptr noundef nonnull align 8 dereferenceable(8) %1) #0 comdat {
  %3 = alloca ptr, align 8
  %4 = alloca ptr, align 8
  store ptr %0, ptr %3, align 8, !tbaa !163
  store ptr %1, ptr %4, align 8, !tbaa !163
  %5 = load ptr, ptr %3, align 8, !tbaa !163
  %6 = getelementptr inbounds nuw %"struct.std::_Rb_tree_const_iterator", ptr %5, i32 0, i32 0
  %7 = load ptr, ptr %6, align 8, !tbaa !165
  %8 = load ptr, ptr %4, align 8, !tbaa !163
  %9 = getelementptr inbounds nuw %"struct.std::_Rb_tree_const_iterator", ptr %8, i32 0, i32 0
  %10 = load ptr, ptr %9, align 8, !tbaa !165
  %11 = icmp ne ptr %7, %10
  ret i1 %11
}

; Function Attrs: mustprogress nounwind uwtable
define linkonce_odr hidden ptr @_ZN10duckdb_re216CharClassBuilder3endEv(ptr noundef nonnull align 8 dereferenceable(64) %0) #0 comdat align 2 {
  %2 = alloca %"struct.std::_Rb_tree_const_iterator", align 8
  %3 = alloca ptr, align 8
  store ptr %0, ptr %3, align 8, !tbaa !50
  %4 = load ptr, ptr %3, align 8
  %5 = getelementptr inbounds nuw %"class.duckdb_re2::CharClassBuilder", ptr %4, i32 0, i32 3
  %6 = call ptr @_ZNKSt3setIN10duckdb_re29RuneRangeENS0_13RuneRangeLessESaIS1_EE3endEv(ptr noundef nonnull align 8 dereferenceable(48) %5) #18
  %7 = getelementptr inbounds nuw %"struct.std::_Rb_tree_const_iterator", ptr %2, i32 0, i32 0
  store ptr %6, ptr %7, align 8
  %8 = getelementptr inbounds nuw %"struct.std::_Rb_tree_const_iterator", ptr %2, i32 0, i32 0
  %9 = load ptr, ptr %8, align 8
  ret ptr %9
}

; Function Attrs: mustprogress nounwind uwtable
define linkonce_odr hidden ptr @_ZN10duckdb_re216CharClassBuilder5beginEv(ptr noundef nonnull align 8 dereferenceable(64) %0) #0 comdat align 2 {
  %2 = alloca %"struct.std::_Rb_tree_const_iterator", align 8
  %3 = alloca ptr, align 8
  store ptr %0, ptr %3, align 8, !tbaa !50
  %4 = load ptr, ptr %3, align 8
  %5 = getelementptr inbounds nuw %"class.duckdb_re2::CharClassBuilder", ptr %4, i32 0, i32 3
  %6 = call ptr @_ZNKSt3setIN10duckdb_re29RuneRangeENS0_13RuneRangeLessESaIS1_EE5beginEv(ptr noundef nonnull align 8 dereferenceable(48) %5) #18
  %7 = getelementptr inbounds nuw %"struct.std::_Rb_tree_const_iterator", ptr %2, i32 0, i32 0
  store ptr %6, ptr %7, align 8
  %8 = getelementptr inbounds nuw %"struct.std::_Rb_tree_const_iterator", ptr %2, i32 0, i32 0
  %9 = load ptr, ptr %8, align 8
  ret ptr %9
}

; Function Attrs: mustprogress uwtable
define hidden noundef ptr @_ZN10duckdb_re29CharClass3NewEm(i64 noundef %0) #4 align 2 {
  %2 = alloca i64, align 8
  %3 = alloca ptr, align 8
  %4 = alloca ptr, align 8
  store i64 %0, ptr %2, align 8, !tbaa !85
  call void @llvm.lifetime.start.p0(i64 8, ptr %3) #18
  call void @llvm.lifetime.start.p0(i64 8, ptr %4) #18
  %5 = load i64, ptr %2, align 8, !tbaa !85
  %6 = mul i64 %5, 8
  %7 = add i64 24, %6
  %8 = call noalias noundef nonnull ptr @_Znam(i64 noundef %7) #22
  store ptr %8, ptr %4, align 8, !tbaa !23
  %9 = load ptr, ptr %4, align 8, !tbaa !23
  store ptr %9, ptr %3, align 8, !tbaa !48
  %10 = load ptr, ptr %4, align 8, !tbaa !23
  %11 = getelementptr inbounds nuw i8, ptr %10, i64 24
  %12 = load ptr, ptr %3, align 8, !tbaa !48
  %13 = getelementptr inbounds nuw %"class.duckdb_re2::CharClass", ptr %12, i32 0, i32 3
  store ptr %11, ptr %13, align 8, !tbaa !179
  %14 = load ptr, ptr %3, align 8, !tbaa !48
  %15 = getelementptr inbounds nuw %"class.duckdb_re2::CharClass", ptr %14, i32 0, i32 4
  store i32 0, ptr %15, align 8, !tbaa !181
  %16 = load ptr, ptr %3, align 8, !tbaa !48
  %17 = getelementptr inbounds nuw %"class.duckdb_re2::CharClass", ptr %16, i32 0, i32 0
  store i8 0, ptr %17, align 8, !tbaa !182
  %18 = load ptr, ptr %3, align 8, !tbaa !48
  %19 = getelementptr inbounds nuw %"class.duckdb_re2::CharClass", ptr %18, i32 0, i32 2
  store i32 0, ptr %19, align 4, !tbaa !183
  %20 = load ptr, ptr %3, align 8, !tbaa !48
  call void @llvm.lifetime.end.p0(i64 8, ptr %4) #18
  call void @llvm.lifetime.end.p0(i64 8, ptr %3) #18
  ret ptr %20
}

; Function Attrs: mustprogress nounwind uwtable
define linkonce_odr hidden noundef i64 @_ZNKSt3setIN10duckdb_re29RuneRangeENS0_13RuneRangeLessESaIS1_EE4sizeEv(ptr noundef nonnull align 8 dereferenceable(48) %0) #0 comdat align 2 {
  %2 = alloca ptr, align 8
  store ptr %0, ptr %2, align 8, !tbaa !155
  %3 = load ptr, ptr %2, align 8
  %4 = getelementptr inbounds nuw %"class.std::set", ptr %3, i32 0, i32 0
  %5 = call noundef i64 @_ZNKSt8_Rb_treeIN10duckdb_re29RuneRangeES1_St9_IdentityIS1_ENS0_13RuneRangeLessESaIS1_EE4sizeEv(ptr noundef nonnull align 8 dereferenceable(48) %4) #18
  ret i64 %5
}

; Function Attrs: mustprogress uwtable
define hidden noundef ptr @_ZN10duckdb_re216CharClassBuilder12GetCharClassEv(ptr noundef nonnull align 8 dereferenceable(64) %0) #4 align 2 {
  %2 = alloca ptr, align 8
  %3 = alloca ptr, align 8
  %4 = alloca i32, align 4
  %5 = alloca %"struct.std::_Rb_tree_const_iterator", align 8
  %6 = alloca %"struct.std::_Rb_tree_const_iterator", align 8
  store ptr %0, ptr %2, align 8, !tbaa !50
  %7 = load ptr, ptr %2, align 8
  call void @llvm.lifetime.start.p0(i64 8, ptr %3) #18
  %8 = getelementptr inbounds nuw %"class.duckdb_re2::CharClassBuilder", ptr %7, i32 0, i32 3
  %9 = call noundef i64 @_ZNKSt3setIN10duckdb_re29RuneRangeENS0_13RuneRangeLessESaIS1_EE4sizeEv(ptr noundef nonnull align 8 dereferenceable(48) %8) #18
  %10 = call noundef ptr @_ZN10duckdb_re29CharClass3NewEm(i64 noundef %9)
  store ptr %10, ptr %3, align 8, !tbaa !48
  call void @llvm.lifetime.start.p0(i64 4, ptr %4) #18
  store i32 0, ptr %4, align 4, !tbaa !29
  call void @llvm.lifetime.start.p0(i64 8, ptr %5) #18
  %11 = call ptr @_ZN10duckdb_re216CharClassBuilder5beginEv(ptr noundef nonnull align 8 dereferenceable(64) %7)
  %12 = getelementptr inbounds nuw %"struct.std::_Rb_tree_const_iterator", ptr %5, i32 0, i32 0
  store ptr %11, ptr %12, align 8
  br label %13

13:                                               ; preds = %27, %1
  call void @llvm.lifetime.start.p0(i64 8, ptr %6) #18
  %14 = call ptr @_ZN10duckdb_re216CharClassBuilder3endEv(ptr noundef nonnull align 8 dereferenceable(64) %7)
  %15 = getelementptr inbounds nuw %"struct.std::_Rb_tree_const_iterator", ptr %6, i32 0, i32 0
  store ptr %14, ptr %15, align 8
  %16 = call noundef zeroext i1 @_ZStneRKSt23_Rb_tree_const_iteratorIN10duckdb_re29RuneRangeEES4_(ptr noundef nonnull align 8 dereferenceable(8) %5, ptr noundef nonnull align 8 dereferenceable(8) %6) #18
  call void @llvm.lifetime.end.p0(i64 8, ptr %6) #18
  br i1 %16, label %18, label %17

17:                                               ; preds = %13
  call void @llvm.lifetime.end.p0(i64 8, ptr %5) #18
  br label %29

18:                                               ; preds = %13
  %19 = call noundef nonnull align 4 dereferenceable(8) ptr @_ZNKSt23_Rb_tree_const_iteratorIN10duckdb_re29RuneRangeEEdeEv(ptr noundef nonnull align 8 dereferenceable(8) %5) #18
  %20 = load ptr, ptr %3, align 8, !tbaa !48
  %21 = getelementptr inbounds nuw %"class.duckdb_re2::CharClass", ptr %20, i32 0, i32 3
  %22 = load ptr, ptr %21, align 8, !tbaa !179
  %23 = load i32, ptr %4, align 4, !tbaa !29
  %24 = add nsw i32 %23, 1
  store i32 %24, ptr %4, align 4, !tbaa !29
  %25 = sext i32 %23 to i64
  %26 = getelementptr inbounds %"struct.duckdb_re2::RuneRange", ptr %22, i64 %25
  call void @llvm.memcpy.p0.p0.i64(ptr align 4 %26, ptr align 4 %19, i64 8, i1 false), !tbaa.struct !169
  br label %27

27:                                               ; preds = %18
  %28 = call noundef nonnull align 8 dereferenceable(8) ptr @_ZNSt23_Rb_tree_const_iteratorIN10duckdb_re29RuneRangeEEppEv(ptr noundef nonnull align 8 dereferenceable(8) %5) #18
  br label %13, !llvm.loop !186

29:                                               ; preds = %17
  %30 = load i32, ptr %4, align 4, !tbaa !29
  %31 = load ptr, ptr %3, align 8, !tbaa !48
  %32 = getelementptr inbounds nuw %"class.duckdb_re2::CharClass", ptr %31, i32 0, i32 4
  store i32 %30, ptr %32, align 8, !tbaa !181
  %33 = getelementptr inbounds nuw %"class.duckdb_re2::CharClassBuilder", ptr %7, i32 0, i32 2
  %34 = load i32, ptr %33, align 8, !tbaa !143
  %35 = load ptr, ptr %3, align 8, !tbaa !48
  %36 = getelementptr inbounds nuw %"class.duckdb_re2::CharClass", ptr %35, i32 0, i32 2
  store i32 %34, ptr %36, align 4, !tbaa !183
  %37 = call noundef zeroext i1 @_ZN10duckdb_re216CharClassBuilder10FoldsASCIIEv(ptr noundef nonnull align 8 dereferenceable(64) %7)
  %38 = load ptr, ptr %3, align 8, !tbaa !48
  %39 = getelementptr inbounds nuw %"class.duckdb_re2::CharClass", ptr %38, i32 0, i32 0
  %40 = zext i1 %37 to i8
  store i8 %40, ptr %39, align 8, !tbaa !182
  %41 = load ptr, ptr %3, align 8, !tbaa !48
  call void @llvm.lifetime.end.p0(i64 4, ptr %4) #18
  call void @llvm.lifetime.end.p0(i64 8, ptr %3) #18
  ret ptr %41
}