; Function Attrs: mustprogress uwtable
define hidden noundef nonnull ptr @_ZN10duckdb_re216CharClassBuilder12GetCharClassEv(ptr noundef nonnull readonly align 8 captures(address) dereferenceable(64) %0) local_unnamed_addr #7 align 2 {
  %2 = getelementptr inbounds nuw i8, ptr %0, i64 56
  %3 = load i64, ptr %2, align 8, !tbaa !50
  %4 = shl i64 %3, 3
  %5 = add i64 %4, 24
  %6 = tail call noalias noundef nonnull ptr @_Znam(i64 noundef %5) #31
  %7 = getelementptr inbounds nuw i8, ptr %6, i64 24
  %8 = getelementptr inbounds nuw i8, ptr %6, i64 8
  store ptr %7, ptr %8, align 8, !tbaa !66
  %9 = getelementptr inbounds nuw i8, ptr %6, i64 16
  store i32 0, ptr %9, align 8, !tbaa !65
  store i8 0, ptr %6, align 8, !tbaa !146
  %10 = getelementptr inbounds nuw i8, ptr %6, i64 4
  store i32 0, ptr %10, align 4, !tbaa !62
  %11 = getelementptr inbounds nuw i8, ptr %0, i64 40
  %12 = load ptr, ptr %11, align 8, !tbaa !115
  %13 = getelementptr inbounds nuw i8, ptr %0, i64 24
  %.not10 = icmp eq ptr %12, %13
  br i1 %.not10, label %._crit_edge, label %.lr.ph

._crit_edge.loopexit:                             ; preds = %.lr.ph
  %14 = trunc nuw i64 %indvars.iv.next to i32
  br label %._crit_edge

._crit_edge:                                      ; preds = %._crit_edge.loopexit, %1
  %.0.lcssa = phi i32 [ 0, %1 ], [ %14, %._crit_edge.loopexit ]
  store i32 %.0.lcssa, ptr %9, align 8, !tbaa !65
  %15 = getelementptr inbounds nuw i8, ptr %0, i64 8
  %16 = load i32, ptr %15, align 8, !tbaa !117
  store i32 %16, ptr %10, align 4, !tbaa !62
  %17 = load i32, ptr %0, align 8, !tbaa !124
  %18 = getelementptr inbounds nuw i8, ptr %0, i64 4
  %19 = load i32, ptr %18, align 4, !tbaa !125
  %20 = xor i32 %19, %17
  %21 = and i32 %20, 67108863
  %22 = icmp eq i32 %21, 0
  %23 = zext i1 %22 to i8
  store i8 %23, ptr %6, align 8, !tbaa !146
  ret ptr %6

.lr.ph:                                           ; preds = %1, %.lr.ph
  %indvars.iv = phi i64 [ %indvars.iv.next, %.lr.ph ], [ 0, %1 ]
  %.sroa.07.011 = phi ptr [ %28, %.lr.ph ], [ %12, %1 ]
  %24 = getelementptr inbounds nuw i8, ptr %.sroa.07.011, i64 32
  %25 = load ptr, ptr %8, align 8, !tbaa !66
  %indvars.iv.next = add nuw nsw i64 %indvars.iv, 1
  %26 = getelementptr inbounds nuw %"struct.duckdb_re2::RuneRange", ptr %25, i64 %indvars.iv
  %27 = load i64, ptr %24, align 4
  store i64 %27, ptr %26, align 4
  %28 = tail call noundef ptr @_ZSt18_Rb_tree_incrementPKSt18_Rb_tree_node_base(ptr noundef %.sroa.07.011) #32
  %.not = icmp eq ptr %28, %13
  br i1 %.not, label %._crit_edge.loopexit, label %.lr.ph, !llvm.loop !151
}